target datalayout = "e-m:e-p270:32:32-p271:32:32-p272:64:64-i64:64-i128:128-f80:128-n8:16:32:64-S128"
target triple = "x86_64-pc-linux-gnu"

%"struct.duckdb_re2::RuneRange" = type { i32, i32 }
%"class.duckdb_re2::CharClass" = type <{ i8, [3 x i8], i32, ptr, i32, [4 x i8] }>

; Function Attrs: mustprogress nounwind uwtable
define hidden noundef zeroext i1 @_ZNK10duckdb_re29CharClass8ContainsEi(ptr noundef nonnull align 8 dereferenceable(20) %0, i32 noundef %1) #0 align 2 {
  %3 = alloca i1, align 1
  %4 = alloca ptr, align 8
  %5 = alloca i32, align 4
  %6 = alloca ptr, align 8
  %7 = alloca i32, align 4
  %8 = alloca i32, align 4
  %9 = alloca i32, align 4
  store ptr %0, ptr %4, align 8, !tbaa !48
  store i32 %1, ptr %5, align 4, !tbaa !29
  %10 = load ptr, ptr %4, align 8
  call void @llvm.lifetime.start.p0(i64 8, ptr %6) #18
  %11 = getelementptr inbounds nuw %"class.duckdb_re2::CharClass", ptr %10, i32 0, i32 3
  %12 = load ptr, ptr %11, align 8, !tbaa !179
  store ptr %12, ptr %6, align 8, !tbaa !161
  call void @llvm.lifetime.start.p0(i64 4, ptr %7) #18
  %13 = getelementptr inbounds nuw %"class.duckdb_re2::CharClass", ptr %10, i32 0, i32 4
  %14 = load i32, ptr %13, align 8, !tbaa !181
  store i32 %14, ptr %7, align 4, !tbaa !29
  br label %15

15:                                               ; preds = %55, %2
  %16 = load i32, ptr %7, align 4, !tbaa !29
  %17 = icmp sgt i32 %16, 0
  br i1 %17, label %18, label %56

18:                                               ; preds = %15
  call void @llvm.lifetime.start.p0(i64 4, ptr %8) #18
  %19 = load i32, ptr %7, align 4, !tbaa !29
  %20 = sdiv i32 %19, 2
  store i32 %20, ptr %8, align 4, !tbaa !29
  %21 = load ptr, ptr %6, align 8, !tbaa !161
  %22 = load i32, ptr %8, align 4, !tbaa !29
  %23 = sext i32 %22 to i64
  %24 = getelementptr inbounds %"struct.duckdb_re2::RuneRange", ptr %21, i64 %23
  %25 = getelementptr inbounds nuw %"struct.duckdb_re2::RuneRange", ptr %24, i32 0, i32 1
  %26 = load i32, ptr %25, align 4, !tbaa !159
  %27 = load i32, ptr %5, align 4, !tbaa !29
  %28 = icmp slt i32 %26, %27
  br i1 %28, label %29, label %39

29:                                               ; preds = %18
  %30 = load i32, ptr %8, align 4, !tbaa !29
  %31 = add nsw i32 %30, 1
  %32 = load ptr, ptr %6, align 8, !tbaa !161
  %33 = sext i32 %31 to i64
  %34 = getelementptr inbounds %"struct.duckdb_re2::RuneRange", ptr %32, i64 %33
  store ptr %34, ptr %6, align 8, !tbaa !161
  %35 = load i32, ptr %8, align 4, !tbaa !29
  %36 = add nsw i32 %35, 1
  %37 = load i32, ptr %7, align 4, !tbaa !29
  %38 = sub nsw i32 %37, %36
  store i32 %38, ptr %7, align 4, !tbaa !29
  br label %52

39:                                               ; preds = %18
  %40 = load i32, ptr %5, align 4, !tbaa !29
  %41 = load ptr, ptr %6, align 8, !tbaa !161
  %42 = load i32, ptr %8, align 4, !tbaa !29
  %43 = sext i32 %42 to i64
  %44 = getelementptr inbounds %"struct.duckdb_re2::RuneRange", ptr %41, i64 %43
  %45 = getelementptr inbounds nuw %"struct.duckdb_re2::RuneRange", ptr %44, i32 0, i32 0
  %46 = load i32, ptr %45, align 4, !tbaa !157
  %47 = icmp slt i32 %40, %46
  br i1 %47, label %48, label %50

48:                                               ; preds = %39
  %49 = load i32, ptr %8, align 4, !tbaa !29
  store i32 %49, ptr %7, align 4, !tbaa !29
  br label %51

50:                                               ; preds = %39
  store i1 true, ptr %3, align 1
  store i32 1, ptr %9, align 4
  br label %53

51:                                               ; preds = %48
  br label %52

52:                                               ; preds = %51, %29
  store i32 0, ptr %9, align 4
  br label %53

53:                                               ; preds = %52, %50
  call void @llvm.lifetime.end.p0(i64 4, ptr %8) #18
  %54 = load i32, ptr %9, align 4
  switch i32 %54, label %57 [
    i32 0, label %55
  ]

55:                                               ; preds = %53
  br label %15, !llvm.loop !185

56:                                               ; preds = %15
  store i1 false, ptr %3, align 1
  store i32 1, ptr %9, align 4
  br label %57

57:                                               ; preds = %56, %53
  call void @llvm.lifetime.end.p0(i64 4, ptr %7) #18
  call void @llvm.lifetime.end.p0(i64 8, ptr %6) #18
  %58 = load i1, ptr %3, align 1
  ret i1 %58
}